; ModuleID = 'source-C-CXX/15/974.c'
source_filename = "source-C-CXX/15/974.c"
target datalayout = "e-m:e-p270:32:32-p271:32:32-p272:64:64-i64:64-f80:128-n8:16:32:64-S128"
target triple = "x86_64-pc-linux-gnu"

@.str = private unnamed_addr constant [3 x i8] c"%s\00", align 1

; Function Attrs: nofree nounwind sspstrong uwtable
define dso_local i32 @main() local_unnamed_addr #0 {
  %1 = alloca [5 x i8], align 1
  %2 = getelementptr inbounds [5 x i8], [5 x i8]* %1, i64 0, i64 0
  call void @llvm.lifetime.start.p0i8(i64 5, i8* nonnull %2) #4
  %3 = call i32 (i8*, ...) @__isoc99_scanf(i8* getelementptr inbounds ([3 x i8], [3 x i8]* @.str, i64 0, i64 0), i8* nonnull %2)
  br label %4

4:                                                ; preds = %4, %0
  %5 = phi i64 [ %9, %4 ], [ 0, %0 ]
  %6 = getelementptr inbounds [5 x i8], [5 x i8]* %1, i64 0, i64 %5
  %7 = load i8, i8* %6, align 1, !tbaa !5
  %8 = icmp eq i8 %7, 0
  %9 = add nuw i64 %5, 1
  br i1 %8, label %10, label %4, !llvm.loop !8

10:                                               ; preds = %4
  %11 = trunc i64 %5 to i32
  %12 = icmp eq i32 %11, 0
  br i1 %12, label %27, label %13

13:                                               ; preds = %10
  %14 = and i64 %5, 4294967295
  br label %15

15:                                               ; preds = %13, %15
  %16 = phi i64 [ %14, %13 ], [ %26, %15 ]
  %17 = phi i32 [ %11, %13 ], [ %18, %15 ]
  %18 = add nsw i32 %17, -1
  %19 = zext i32 %18 to i64
  %20 = getelementptr inbounds [5 x i8], [5 x i8]* %1, i64 0, i64 %19
  %21 = load i8, i8* %20, align 1, !tbaa !5
  %22 = sext i8 %21 to i32
  %23 = call i32 @putchar(i32 %22)
  %24 = trunc i64 %16 to i32
  %25 = icmp sgt i32 %24, 1
  %26 = add nsw i64 %16, -1
  br i1 %25, label %15, label %27, !llvm.loop !10

27:                                               ; preds = %15, %10
  %28 = call i32 @putchar(i32 10)
  call void @llvm.lifetime.end.p0i8(i64 5, i8* nonnull %2) #4
  ret i32 0
}

; Function Attrs: argmemonly mustprogress nofree nosync nounwind willreturn
declare void @llvm.lifetime.start.p0i8(i64 immarg, i8* nocapture) #1

; Function Attrs: nofree nounwind
declare noundef i32 @__isoc99_scanf(i8* nocapture noundef readonly, ...) local_unnamed_addr #2

; Function Attrs: argmemonly mustprogress nofree nosync nounwind willreturn
declare void @llvm.lifetime.end.p0i8(i64 immarg, i8* nocapture) #1

; Function Attrs: nofree nounwind
declare noundef i32 @putchar(i32 noundef) local_unnamed_addr #3


!llvm.module.flags = !{!0, !1, !2, !3}
!llvm.ident = !{!4}

!0 = !{i32 1, !"wchar_size", i32 4}
!1 = !{i32 7, !"PIC Level", i32 2}
!2 = !{i32 7, !"PIE Level", i32 2}
!3 = !{i32 7, !"uwtable", i32 1}
!4 = !{!"clang version 13.0.0"}
!5 = !{!6, !6, i64 0}
!6 = !{!"omnipotent char", !7, i64 0}
!7 = !{!"Simple C/C++ TBAA"}
!8 = distinct !{!8, !9}
!9 = !{!"llvm.loop.mustprogress"}
!10 = distinct !{!10, !9}
